(dp0
S'acc'
p1
(lp2
cnumpy.core.multiarray
scalar
p3
(cnumpy
dtype
p4
(S'f4'
p5
I0
I1
tp6
Rp7
(I3
S'<'
p8
NNNI-1
I-1
I0
tp9
bS'\xef\xc9#?'
p10
tp11
Rp12
ag3
(g7
S'g\xee9?'
p13
tp14
Rp15
ag3
(g7
S'w\x13D?'
p16
tp17
Rp18
ag3
(g7
S'\x8f4H?'
p19
tp20
Rp21
ag3
(g7
S'bgJ?'
p22
tp23
Rp24
ag3
(g7
S'\xc8]L?'
p25
tp26
Rp27
ag3
(g7
S'c`M?'
p28
tp29
Rp30
ag3
(g7
S'(aN?'
p31
tp32
Rp33
ag3
(g7
S'\xbd\xfcN?'
p34
tp35
Rp36
ag3
(g7
S'\x98\xbeO?'
p37
tp38
Rp39
asS'loss'
p40
(lp41
g3
(g4
(S'f8'
p42
I0
I1
tp43
Rp44
(I3
S'<'
p45
NNNI-1
I-1
I0
tp46
bS'd;\xdf\xb7W\x9f\xe8?'
p47
tp48
Rp49
ag3
(g44
S'\x19\x04V\x02Q\x05\xe0?'
p50
tp51
Rp52
ag3
(g44
S'\xbct\x93\x18\x99&\xdd?'
p53
tp54
Rp55
ag3
(g44
S'\x02+\x876\x1f\xdc\xdb?'
p56
tp57
Rp58
ag3
(g44
S'333\x1b\xce\x10\xdb?'
p59
tp60
Rp61
ag3
(g44
S'\xa2E\xb6\xeb\x01p\xda?'
p62
tp63
Rp64
ag3
(g44
S'5^\xba\xa9\xa6\t\xda?'
p65
tp66
Rp67
ag3
(g44
S'd;\xdf\xa7\xd7\xb8\xd9?'
p68
tp69
Rp70
ag3
(g44
S'B`\xe5P\xa9s\xd9?'
p71
tp72
Rp73
ag3
(g44
S'\xd7\xa3pef+\xd9?'
p74
tp75
Rp76
asS'val_acc'
p77
(lp78
g3
(g7
S'\xa5k.?'
p79
tp80
Rp81
ag3
(g7
S'VHA?'
p82
tp83
Rp84
ag3
(g7
S'\xc3\x81H?'
p85
tp86
Rp87
ag3
(g7
S'\x9a|K?'
p88
tp89
Rp90
ag3
(g7
S'\xbbDM?'
p91
tp92
Rp93
ag3
(g7
S'\x02\xbcM?'
p94
tp95
Rp96
ag3
(g7
S']PO?'
p97
tp98
Rp99
ag3
(g7
S'[%P?'
p100
tp101
Rp102
ag3
(g7
S'\xb9pP?'
p103
tp104
Rp105
ag3
(g7
S'\xdf\x15Q?'
p106
tp107
Rp108
asS'val_loss'
p109
(lp110
g3
(g44
S'\xe1z\x14^\xf5#\xe1?'
p111
tp112
Rp113
ag3
(g44
S'\x8f\xc2\xf5P\xfc\x0b\xde?'
p114
tp115
Rp116
ag3
(g44
S'\x1f\x85\xeb\xc1$U\xdd?'
p117
tp118
Rp119
ag3
(g44
S'R\xb8\x1e%\xa2\x94\xdb?'
p120
tp121
Rp122
ag3
(g44
S'\x1f\x85\xeb\t\xe4\x95\xda?'
p123
tp124
Rp125
ag3
(g44
S'q=\n\x07=X\xda?'
p126
tp127
Rp128
ag3
(g44
S'\n\xd7\xa3@\xa1\xff\xd9?'
p129
tp130
Rp131
ag3
(g44
S'\xecQ\xb8\x96\x97d\xd9?'
p132
tp133
Rp134
ag3
(g44
S'{\x14\xae\x0f\xeaH\xd9?'
p135
tp136
Rp137
ag3
(g44
S'\xecQ\xb8>\xca\xff\xd8?'
p138
tp139
Rp140
as.